target datalayout = "e-m:e-p270:32:32-p271:32:32-p272:64:64-i64:64-i128:128-f80:128-n8:16:32:64-S128"
target triple = "x86_64-unknown-linux-gnu"

%"struct.(anonymous namespace)::arith_degree_probe::proc" = type <{ ptr, %class.mpq_manager, %"class.polynomial::manager", %class.default_expr2polynomial, %class.arith_util, i32, [4 x i8], i64, i32, [4 x i8] }>
%class.mpq_manager = type { %class.mpz_manager, %class.mpz, %class.mpz, %class.mpz, %class.mpz, %class.mpq, %class.mpq }
%class.mpz_manager = type { %class.small_object_allocator, %"class.std::recursive_mutex", %class.mpn_manager, i32, %class.mpz, %class.mpz }
%class.small_object_allocator = type { [32 x ptr], [32 x ptr], i64 }
%"class.std::recursive_mutex" = type { %"class.std::__recursive_mutex_base" }
%"class.std::__recursive_mutex_base" = type { %union.pthread_mutex_t }
%union.pthread_mutex_t = type { %struct.__pthread_mutex_s }
%struct.__pthread_mutex_s = type { i32, i32, i32, i32, i32, i16, i16, %struct.__pthread_internal_list }
%struct.__pthread_internal_list = type { ptr, ptr }
%class.mpn_manager = type { i8 }
%class.mpz = type { i32, i8, ptr }
%class.mpq = type { %class.mpz, %class.mpz }
%"class.polynomial::manager" = type { ptr }
%class.default_expr2polynomial = type { %class.expr2polynomial, %class.svector }
%class.expr2polynomial = type { ptr, ptr }
%class.svector = type { %class.vector }
%class.vector = type { ptr }
%class.arith_util = type { ptr, ptr }

; Function Attrs: mustprogress nounwind uwtable
define internal void @_ZN12_GLOBAL__N_118arith_degree_probe4procD2Ev(ptr noundef nonnull align 8 dereferenceable(804) %this) unnamed_addr #5 align 2 {
entry:
  %this.addr = alloca ptr, align 8
  store ptr %this, ptr %this.addr, align 8
  %this1 = load ptr, ptr %this.addr, align 8
  %m_expr2poly = getelementptr inbounds %"struct.(anonymous namespace)::arith_degree_probe::proc", ptr %this1, i32 0, i32 3
  call void @_ZN23default_expr2polynomialD1Ev(ptr noundef nonnull align 8 dereferenceable(24) %m_expr2poly) #3
  %m_pm = getelementptr inbounds %"struct.(anonymous namespace)::arith_degree_probe::proc", ptr %this1, i32 0, i32 2
  call void @_ZN10polynomial7managerD1Ev(ptr noundef nonnull align 8 dereferenceable(8) %m_pm) #3
  %m_qm = getelementptr inbounds %"struct.(anonymous namespace)::arith_degree_probe::proc", ptr %this1, i32 0, i32 1
  call void @_ZN11mpq_managerILb0EED1Ev(ptr noundef nonnull align 8 dereferenceable(728) %m_qm) #3
  ret void
}