; Function Attrs: mustprogress nounwind uwtable
define internal fastcc void @_ZN12_GLOBAL__N_118arith_degree_probe4procD2Ev(ptr noundef nonnull align 8 dereferenceable(804) %this) unnamed_addr #6 align 2 {
entry:
  %m_expr2poly = getelementptr inbounds i8, ptr %this, i64 744
  tail call void @_ZN23default_expr2polynomialD1Ev(ptr noundef nonnull align 8 dereferenceable(24) %m_expr2poly) #19
  %m_pm = getelementptr inbounds i8, ptr %this, i64 736
  tail call void @_ZN10polynomial7managerD1Ev(ptr noundef nonnull align 8 dereferenceable(8) %m_pm) #19
  %m_qm = getelementptr inbounds i8, ptr %this, i64 8
  tail call void @_ZN11mpq_managerILb0EED1Ev(ptr noundef nonnull align 8 dereferenceable(728) %m_qm) #19
  ret void
}